target datalayout = "e-m:e-p270:32:32-p271:32:32-p272:64:64-i64:64-i128:128-f80:128-n8:16:32:64-S128"
target triple = "x86_64-pc-linux-gnu"

%struct._generic_SUNMatrix = type { ptr, ptr, ptr }
%struct._SUNMatrixContent_Band = type { i64, i64, i64, i64, i64, i64, ptr, i64, ptr }

; Function Attrs: nounwind uwtable
define i32 @SUNMatScaleAddI_Band(double noundef %0, ptr noundef %1) #0 {
  %3 = alloca double, align 8
  %4 = alloca ptr, align 8
  %5 = alloca ptr, align 8
  %6 = alloca i64, align 8
  %7 = alloca i64, align 8
  %8 = alloca ptr, align 8
  store double %0, ptr %3, align 8, !tbaa !42
  store ptr %1, ptr %4, align 8, !tbaa !10
  call void @llvm.lifetime.start.p0(i64 8, ptr %5) #8
  %9 = load ptr, ptr %4, align 8, !tbaa !10
  %10 = getelementptr inbounds nuw %struct._generic_SUNMatrix, ptr %9, i32 0, i32 2
  %11 = load ptr, ptr %10, align 8, !tbaa !41
  store ptr %11, ptr %5, align 8, !tbaa !7
  call void @llvm.lifetime.start.p0(i64 8, ptr %6) #8
  call void @llvm.lifetime.start.p0(i64 8, ptr %7) #8
  call void @llvm.lifetime.start.p0(i64 8, ptr %8) #8
  store i64 0, ptr %7, align 8, !tbaa !3
  br label %12

12:                                               ; preds = %80, %2
  %13 = load i64, ptr %7, align 8, !tbaa !3
  %14 = load ptr, ptr %4, align 8, !tbaa !10
  %15 = getelementptr inbounds nuw %struct._generic_SUNMatrix, ptr %14, i32 0, i32 0
  %16 = load ptr, ptr %15, align 8, !tbaa !27
  %17 = getelementptr inbounds nuw %struct._SUNMatrixContent_Band, ptr %16, i32 0, i32 1
  %18 = load i64, ptr %17, align 8, !tbaa !32
  %19 = icmp slt i64 %13, %18
  br i1 %19, label %20, label %83

20:                                               ; preds = %12
  %21 = load ptr, ptr %4, align 8, !tbaa !10
  %22 = getelementptr inbounds nuw %struct._generic_SUNMatrix, ptr %21, i32 0, i32 0
  %23 = load ptr, ptr %22, align 8, !tbaa !27
  %24 = getelementptr inbounds nuw %struct._SUNMatrixContent_Band, ptr %23, i32 0, i32 8
  %25 = load ptr, ptr %24, align 8, !tbaa !39
  %26 = load i64, ptr %7, align 8, !tbaa !3
  %27 = getelementptr inbounds ptr, ptr %25, i64 %26
  %28 = load ptr, ptr %27, align 8, !tbaa !40
  %29 = load ptr, ptr %4, align 8, !tbaa !10
  %30 = getelementptr inbounds nuw %struct._generic_SUNMatrix, ptr %29, i32 0, i32 0
  %31 = load ptr, ptr %30, align 8, !tbaa !27
  %32 = getelementptr inbounds nuw %struct._SUNMatrixContent_Band, ptr %31, i32 0, i32 5
  %33 = load i64, ptr %32, align 8, !tbaa !35
  %34 = getelementptr inbounds double, ptr %28, i64 %33
  store ptr %34, ptr %8, align 8, !tbaa !40
  %35 = load ptr, ptr %4, align 8, !tbaa !10
  %36 = getelementptr inbounds nuw %struct._generic_SUNMatrix, ptr %35, i32 0, i32 0
  %37 = load ptr, ptr %36, align 8, !tbaa !27
  %38 = getelementptr inbounds nuw %struct._SUNMatrixContent_Band, ptr %37, i32 0, i32 3
  %39 = load i64, ptr %38, align 8, !tbaa !33
  %40 = sub nsw i64 0, %39
  store i64 %40, ptr %6, align 8, !tbaa !3
  br label %41

41:                                               ; preds = %56, %20
  %42 = load i64, ptr %6, align 8, !tbaa !3
  %43 = load ptr, ptr %4, align 8, !tbaa !10
  %44 = getelementptr inbounds nuw %struct._generic_SUNMatrix, ptr %43, i32 0, i32 0
  %45 = load ptr, ptr %44, align 8, !tbaa !27
  %46 = getelementptr inbounds nuw %struct._SUNMatrixContent_Band, ptr %45, i32 0, i32 4
  %47 = load i64, ptr %46, align 8, !tbaa !34
  %48 = icmp sle i64 %42, %47
  br i1 %48, label %49, label %59

49:                                               ; preds = %41
  %50 = load double, ptr %3, align 8, !tbaa !42
  %51 = load ptr, ptr %8, align 8, !tbaa !40
  %52 = load i64, ptr %6, align 8, !tbaa !3
  %53 = getelementptr inbounds double, ptr %51, i64 %52
  %54 = load double, ptr %53, align 8, !tbaa !42
  %55 = fmul double %54, %50
  store double %55, ptr %53, align 8, !tbaa !42
  br label %56

56:                                               ; preds = %49
  %57 = load i64, ptr %6, align 8, !tbaa !3
  %58 = add nsw i64 %57, 1
  store i64 %58, ptr %6, align 8, !tbaa !3
  br label %41

59:                                               ; preds = %41
  %60 = load ptr, ptr %4, align 8, !tbaa !10
  %61 = getelementptr inbounds nuw %struct._generic_SUNMatrix, ptr %60, i32 0, i32 0
  %62 = load ptr, ptr %61, align 8, !tbaa !27
  %63 = getelementptr inbounds nuw %struct._SUNMatrixContent_Band, ptr %62, i32 0, i32 8
  %64 = load ptr, ptr %63, align 8, !tbaa !39
  %65 = load i64, ptr %7, align 8, !tbaa !3
  %66 = getelementptr inbounds ptr, ptr %64, i64 %65
  %67 = load ptr, ptr %66, align 8, !tbaa !40
  %68 = load i64, ptr %7, align 8, !tbaa !3
  %69 = load i64, ptr %7, align 8, !tbaa !3
  %70 = sub nsw i64 %68, %69
  %71 = load ptr, ptr %4, align 8, !tbaa !10
  %72 = getelementptr inbounds nuw %struct._generic_SUNMatrix, ptr %71, i32 0, i32 0
  %73 = load ptr, ptr %72, align 8, !tbaa !27
  %74 = getelementptr inbounds nuw %struct._SUNMatrixContent_Band, ptr %73, i32 0, i32 5
  %75 = load i64, ptr %74, align 8, !tbaa !35
  %76 = add nsw i64 %70, %75
  %77 = getelementptr inbounds double, ptr %67, i64 %76
  %78 = load double, ptr %77, align 8, !tbaa !42
  %79 = fadd double %78, 1.000000e+00
  store double %79, ptr %77, align 8, !tbaa !42
  br label %80

80:                                               ; preds = %59
  %81 = load i64, ptr %7, align 8, !tbaa !3
  %82 = add nsw i64 %81, 1
  store i64 %82, ptr %7, align 8, !tbaa !3
  br label %12

83:                                               ; preds = %12
  call void @llvm.lifetime.end.p0(i64 8, ptr %8) #8
  call void @llvm.lifetime.end.p0(i64 8, ptr %7) #8
  call void @llvm.lifetime.end.p0(i64 8, ptr %6) #8
  call void @llvm.lifetime.end.p0(i64 8, ptr %5) #8
  ret i32 0
}