; Function Attrs: nofree norecurse nosync nounwind memory(readwrite, inaccessiblemem: none) uwtable
define noundef i32 @SUNMatScaleAddI_Band(double noundef %0, ptr noundef readonly captures(none) %1) #5 {
  %3 = load ptr, ptr %1, align 8, !tbaa !20
  %4 = getelementptr inbounds nuw i8, ptr %3, i64 8
  %5 = load i64, ptr %4, align 8, !tbaa !26
  %6 = icmp sgt i64 %5, 0
  br i1 %6, label %.lr.ph23, label %._crit_edge24

.lr.ph23:                                         ; preds = %2
  %7 = getelementptr inbounds nuw i8, ptr %3, i64 64
  %8 = load ptr, ptr %7, align 8, !tbaa !33
  %9 = getelementptr inbounds nuw i8, ptr %3, i64 40
  %10 = load i64, ptr %9, align 8, !tbaa !29
  %11 = getelementptr inbounds nuw i8, ptr %3, i64 24
  %12 = load i64, ptr %11, align 8, !tbaa !27
  %13 = sub nsw i64 0, %12
  %14 = getelementptr inbounds nuw i8, ptr %3, i64 32
  %15 = load i64, ptr %14, align 8, !tbaa !28
  %.not19 = icmp slt i64 %15, %13
  br i1 %.not19, label %.lr.ph23.split.us, label %.lr.ph

.lr.ph23.split.us:                                ; preds = %.lr.ph23, %.lr.ph23.split.us
  %.01821.us = phi i64 [ %21, %.lr.ph23.split.us ], [ 0, %.lr.ph23 ]
  %16 = getelementptr inbounds nuw ptr, ptr %8, i64 %.01821.us
  %17 = load ptr, ptr %16, align 8, !tbaa !34
  %18 = getelementptr inbounds double, ptr %17, i64 %10
  %19 = load double, ptr %18, align 8, !tbaa !36
  %20 = fadd double %19, 1.000000e+00
  store double %20, ptr %18, align 8, !tbaa !36
  %21 = add nuw nsw i64 %.01821.us, 1
  %exitcond27.not = icmp eq i64 %21, %5
  br i1 %exitcond27.not, label %._crit_edge24, label %.lr.ph23.split.us

.lr.ph:                                           ; preds = %.lr.ph23, %._crit_edge
  %.01821 = phi i64 [ %32, %._crit_edge ], [ 0, %.lr.ph23 ]
  %22 = getelementptr inbounds nuw ptr, ptr %8, i64 %.01821
  %23 = load ptr, ptr %22, align 8, !tbaa !34
  %24 = getelementptr inbounds double, ptr %23, i64 %10
  br label %25

25:                                               ; preds = %.lr.ph, %25
  %.020 = phi i64 [ %13, %.lr.ph ], [ %29, %25 ]
  %26 = getelementptr inbounds double, ptr %24, i64 %.020
  %27 = load double, ptr %26, align 8, !tbaa !36
  %28 = fmul double %0, %27
  store double %28, ptr %26, align 8, !tbaa !36
  %29 = add i64 %.020, 1
  %exitcond.not = icmp eq i64 %.020, %15
  br i1 %exitcond.not, label %._crit_edge, label %25

._crit_edge:                                      ; preds = %25
  %30 = load double, ptr %24, align 8, !tbaa !36
  %31 = fadd double %30, 1.000000e+00
  store double %31, ptr %24, align 8, !tbaa !36
  %32 = add nuw nsw i64 %.01821, 1
  %exitcond26.not = icmp eq i64 %32, %5
  br i1 %exitcond26.not, label %._crit_edge24, label %.lr.ph

._crit_edge24:                                    ; preds = %._crit_edge, %.lr.ph23.split.us, %2
  ret i32 0
}